target datalayout = "e-m:e-p270:32:32-p271:32:32-p272:64:64-i64:64-i128:128-f80:128-n8:16:32:64-S128"
target triple = "x86_64-unknown-linux-gnu"

%struct.QemuMutex = type { %union.pthread_mutex_t, i8 }
%union.pthread_mutex_t = type { %struct.__pthread_mutex_s }
%struct.__pthread_mutex_s = type { i32, i32, i32, i32, i32, i16, i16, %struct.__pthread_internal_list }
%struct.__pthread_internal_list = type { ptr, ptr }
%struct.MigrationIncomingState = type { ptr, [2 x ptr], ptr, ptr, %struct.QemuSemaphore, %struct.QemuEvent, %struct.AnnounceTimer, i64, i8, %struct.QemuThread, i8, i8, %struct.QemuThread, i32, i32, ptr, %struct.QemuMutex, ptr, i32, ptr, %struct.QemuSemaphore, %struct.QemuThread, i32, %struct.QemuMutex, ptr, ptr, ptr, ptr, i32, ptr, ptr, %struct.QemuSemaphore, ptr, %struct.QemuSemaphore, %struct.QemuSemaphore, %struct.QemuSemaphore, ptr, ptr, i32, %struct.QemuMutex, %struct.QemuCond, i32 }
%struct.QemuEvent = type { i32, i8 }
%struct.AnnounceTimer = type { ptr, %struct.AnnounceParameters, i32, i32 }
%struct.AnnounceParameters = type { i64, i64, i64, i64, i8, ptr, ptr }
%struct.QemuThread = type { i64 }
%struct.QemuSemaphore = type { %struct.QemuMutex, %struct.QemuCond, i32 }
%struct.QemuCond = type { %union.pthread_cond_t, i8 }
%union.pthread_cond_t = type { %struct.__pthread_cond_s }
%struct.__pthread_cond_s = type { %union.__atomic_wide_counter, %union.__atomic_wide_counter, [2 x i32], [2 x i32], i32, i32, [2 x i32] }
%union.__atomic_wide_counter = type { i64 }
%struct.uffdio_register = type { %struct.uffdio_range, i64, i64 }
%struct.uffdio_range = type { i64, i64 }
%struct.RAMBlock = type { %struct.rcu_head, ptr, ptr, ptr, i64, i64, i64, ptr, i32, [256 x i8], %struct.anon.4, %struct.anon.5, i32, i64, i64, ptr, ptr, ptr, i8, i64 }
%struct.rcu_head = type { ptr, ptr }
%struct.anon.4 = type { ptr, ptr }
%struct.anon.5 = type { ptr }

@.str.86 = private unnamed_addr constant [26 x i8] c"%s userfault register: %s\00", align 1
@__func__.ram_block_enable_notify = private unnamed_addr constant [24 x i8] c"ram_block_enable_notify\00", align 1
@.str.87 = private unnamed_addr constant [42 x i8] c"%s userfault: Region doesn't support COPY\00", align 1

; Function Attrs: nounwind sspstrong uwtable
define internal i32 @ram_block_enable_notify(ptr noundef %rb, ptr noundef %opaque) #0 {
entry:
  %retval = alloca i32, align 4
  %rb.addr = alloca ptr, align 8
  %opaque.addr = alloca ptr, align 8
  %mis = alloca ptr, align 8
  %reg_struct = alloca %struct.uffdio_register, align 8
  store ptr %rb, ptr %rb.addr, align 8
  store ptr %opaque, ptr %opaque.addr, align 8
  %0 = load ptr, ptr %opaque.addr, align 8
  store ptr %0, ptr %mis, align 8
  %1 = load ptr, ptr %rb.addr, align 8
  %call = call ptr @qemu_ram_get_host_addr(ptr noundef %1)
  %2 = ptrtoint ptr %call to i64
  %range = getelementptr inbounds %struct.uffdio_register, ptr %reg_struct, i32 0, i32 0
  %start = getelementptr inbounds %struct.uffdio_range, ptr %range, i32 0, i32 0
  store i64 %2, ptr %start, align 8
  %3 = load ptr, ptr %rb.addr, align 8
  %postcopy_length = getelementptr inbounds %struct.RAMBlock, ptr %3, i32 0, i32 19
  %4 = load i64, ptr %postcopy_length, align 8
  %range1 = getelementptr inbounds %struct.uffdio_register, ptr %reg_struct, i32 0, i32 0
  %len = getelementptr inbounds %struct.uffdio_range, ptr %range1, i32 0, i32 1
  store i64 %4, ptr %len, align 8
  %mode = getelementptr inbounds %struct.uffdio_register, ptr %reg_struct, i32 0, i32 1
  store i64 1, ptr %mode, align 8
  %5 = load ptr, ptr %mis, align 8
  %userfault_fd = getelementptr inbounds %struct.MigrationIncomingState, ptr %5, i32 0, i32 13
  %6 = load i32, ptr %userfault_fd, align 8
  %call2 = call i32 (i32, i64, ...) @ioctl(i32 noundef %6, i64 noundef 3223366144, ptr noundef %reg_struct) #11
  %tobool = icmp ne i32 %call2, 0
  br i1 %tobool, label %if.then, label %if.end

if.then:                                          ; preds = %entry
  %call3 = call ptr @__errno_location() #10
  %7 = load i32, ptr %call3, align 4
  %call4 = call ptr @strerror(i32 noundef %7) #11
  call void (ptr, ...) @error_report(ptr noundef @.str.86, ptr noundef @__func__.ram_block_enable_notify, ptr noundef %call4)
  store i32 -1, ptr %retval, align 4
  br label %return

if.end:                                           ; preds = %entry
  %ioctls = getelementptr inbounds %struct.uffdio_register, ptr %reg_struct, i32 0, i32 2
  %8 = load i64, ptr %ioctls, align 8
  %and = and i64 %8, 8
  %tobool5 = icmp ne i64 %and, 0
  br i1 %tobool5, label %if.end7, label %if.then6

if.then6:                                         ; preds = %if.end
  call void (ptr, ...) @error_report(ptr noundef @.str.87, ptr noundef @__func__.ram_block_enable_notify)
  store i32 -1, ptr %retval, align 4
  br label %return

if.end7:                                          ; preds = %if.end
  %ioctls8 = getelementptr inbounds %struct.uffdio_register, ptr %reg_struct, i32 0, i32 2
  %9 = load i64, ptr %ioctls8, align 8
  %and9 = and i64 %9, 16
  %tobool10 = icmp ne i64 %and9, 0
  br i1 %tobool10, label %if.then11, label %if.end12

if.then11:                                        ; preds = %if.end7
  %10 = load ptr, ptr %rb.addr, align 8
  call void @qemu_ram_set_uf_zeroable(ptr noundef %10)
  br label %if.end12

if.end12:                                         ; preds = %if.then11, %if.end7
  store i32 0, ptr %retval, align 4
  br label %return

return:                                           ; preds = %if.end12, %if.then6, %if.then
  %11 = load i32, ptr %retval, align 4
  ret i32 %11
}