; Function Attrs: nounwind sspstrong uwtable
define internal range(i32 -1, 1) i32 @ram_block_enable_notify(ptr noundef %rb, ptr noundef readonly captures(none) %opaque) #0 {
entry:
  %reg_struct = alloca %struct.uffdio_register, align 8
  %call = tail call ptr @qemu_ram_get_host_addr(ptr noundef %rb) #16
  %0 = ptrtoint ptr %call to i64
  store i64 %0, ptr %reg_struct, align 8
  %postcopy_length = getelementptr inbounds nuw i8, ptr %rb, i64 416
  %1 = load i64, ptr %postcopy_length, align 8
  %len = getelementptr inbounds nuw i8, ptr %reg_struct, i64 8
  store i64 %1, ptr %len, align 8
  %mode = getelementptr inbounds nuw i8, ptr %reg_struct, i64 16
  store i64 1, ptr %mode, align 8
  %userfault_fd = getelementptr inbounds nuw i8, ptr %opaque, i64 272
  %2 = load i32, ptr %userfault_fd, align 8
  %call2 = call i32 (i32, i64, ...) @ioctl(i32 noundef %2, i64 noundef 3223366144, ptr noundef nonnull %reg_struct) #16
  %tobool.not = icmp eq i32 %call2, 0
  br i1 %tobool.not, label %if.end, label %if.then

if.then:                                          ; preds = %entry
  %call3 = tail call ptr @__errno_location() #18
  %3 = load i32, ptr %call3, align 4
  %call4 = call ptr @strerror(i32 noundef %3) #16
  call void (ptr, ...) @error_report(ptr noundef nonnull @.str.86, ptr noundef nonnull @__func__.ram_block_enable_notify, ptr noundef %call4) #16
  br label %return

if.end:                                           ; preds = %entry
  %ioctls = getelementptr inbounds nuw i8, ptr %reg_struct, i64 24
  %4 = load i64, ptr %ioctls, align 8
  %and = and i64 %4, 8
  %tobool5.not = icmp eq i64 %and, 0
  br i1 %tobool5.not, label %if.then6, label %if.end7

if.then6:                                         ; preds = %if.end
  call void (ptr, ...) @error_report(ptr noundef nonnull @.str.87, ptr noundef nonnull @__func__.ram_block_enable_notify) #16
  br label %return

if.end7:                                          ; preds = %if.end
  %and9 = and i64 %4, 16
  %tobool10.not = icmp eq i64 %and9, 0
  br i1 %tobool10.not, label %return, label %if.then11

if.then11:                                        ; preds = %if.end7
  call void @qemu_ram_set_uf_zeroable(ptr noundef nonnull %rb) #16
  br label %return

return:                                           ; preds = %if.end7, %if.then11, %if.then6, %if.then
  %retval.0 = phi i32 [ -1, %if.then ], [ -1, %if.then6 ], [ 0, %if.then11 ], [ 0, %if.end7 ]
  ret i32 %retval.0
}